; Function Attrs: nounwind uwtable
define void @ff_opus_rc_enc_uint_step(ptr noundef captures(none) %0, i32 noundef %1, i32 noundef %2) local_unnamed_addr #1 {
  %.not = icmp ugt i32 %1, %2
  %4 = select i1 %.not, i32 1, i32 3
  %5 = shl i32 %2, 1
  %6 = add i32 %5, 2
  %7 = add i32 %6, %1
  %8 = mul i32 %7, %4
  %.neg = select i1 %.not, i32 0, i32 -3
  %.neg13 = mul i32 %.neg, %6
  %9 = add i32 %8, %.neg13
  %10 = shl i32 %6, 1
  %11 = add nsw i32 %10, -1
  %12 = getelementptr inbounds nuw i8, ptr %0, i64 56
  %13 = load i32, ptr %12, align 8, !tbaa !8
  %14 = udiv i32 %13, %11
  %.not25.i = icmp eq i32 %9, 0
  %.neg.i = sub i32 %9, %11
  %.neg22.i = mul i32 %14, %.neg.i
  %15 = add i32 %.neg22.i, %13
  %16 = select i1 %.not25.i, i32 0, i32 %15
  %17 = getelementptr inbounds nuw i8, ptr %0, i64 60
  %18 = load i32, ptr %17, align 4, !tbaa !15
  %19 = add i32 %16, %18
  store i32 %19, ptr %17, align 4, !tbaa !15
  %reass.sub = sub i32 %4, %10
  %20 = add i32 %reass.sub, 1
  %.neg23.i = add i32 %20, %9
  %.neg24.i = mul i32 %14, %.neg23.i
  %21 = add i32 %.neg24.i, %13
  %22 = select i1 %.not25.i, i32 %21, i32 0
  %23 = select i1 %.not25.i, i32 0, i32 %14
  %24 = mul i32 %23, %4
  %25 = add i32 %22, %24
  store i32 %25, ptr %12, align 8, !tbaa !8
  %26 = icmp ult i32 %25, 8388609
  br i1 %26, label %.lr.ph16, label %opus_rc_enc_normalize.exit

.lr.ph16:                                         ; preds = %3
  %27 = getelementptr inbounds nuw i8, ptr %0, i64 1372
  %28 = getelementptr inbounds nuw i8, ptr %0, i64 1360
  %29 = getelementptr inbounds nuw i8, ptr %0, i64 1368
  %30 = getelementptr inbounds nuw i8, ptr %0, i64 32
  %31 = getelementptr inbounds nuw i8, ptr %0, i64 64
  br label %32

32:                                               ; preds = %.lr.ph16, %opus_rc_enc_carryout.exit.i
  %33 = phi i32 [ %25, %.lr.ph16 ], [ %71, %opus_rc_enc_carryout.exit.i ]
  %34 = phi i32 [ %19, %.lr.ph16 ], [ %70, %opus_rc_enc_carryout.exit.i ]
  %35 = lshr i32 %34, 23
  %36 = lshr i32 %34, 31
  %37 = icmp eq i32 %35, 255
  br i1 %37, label %38, label %41

38:                                               ; preds = %32
  %39 = load i32, ptr %29, align 8, !tbaa !24
  %40 = add nsw i32 %39, 1
  store i32 %40, ptr %29, align 8, !tbaa !24
  br label %opus_rc_enc_carryout.exit.i

41:                                               ; preds = %32
  %42 = load i32, ptr %27, align 4, !tbaa !25
  %43 = add nsw i32 %42, %36
  %44 = trunc i32 %43 to i8
  %45 = load ptr, ptr %28, align 8, !tbaa !26
  store i8 %44, ptr %45, align 1, !tbaa !22
  %46 = load i32, ptr %27, align 4, !tbaa !25
  %47 = icmp sgt i32 %46, -1
  %48 = load ptr, ptr %28, align 8, !tbaa !26
  %49 = zext i1 %47 to i64
  %50 = getelementptr inbounds nuw i8, ptr %48, i64 %49
  store ptr %50, ptr %28, align 8, !tbaa !26
  %51 = load i32, ptr %29, align 8, !tbaa !24
  %52 = icmp sgt i32 %51, 0
  br i1 %52, label %.lr.ph, label %._crit_edge

.lr.ph:                                           ; preds = %41
  %53 = trunc nuw nsw i32 %36 to i8
  %54 = add nsw i8 %53, -1
  br label %55

55:                                               ; preds = %.lr.ph, %55
  %56 = load ptr, ptr %28, align 8, !tbaa !26
  %57 = getelementptr inbounds nuw i8, ptr %56, i64 1
  store ptr %57, ptr %28, align 8, !tbaa !26
  store i8 %54, ptr %56, align 1, !tbaa !22
  %58 = load i32, ptr %29, align 8, !tbaa !24
  %59 = add nsw i32 %58, -1
  store i32 %59, ptr %29, align 8, !tbaa !24
  %60 = icmp sgt i32 %58, 1
  br i1 %60, label %55, label %._crit_edge.loopexit, !llvm.loop !27

._crit_edge.loopexit:                             ; preds = %55
  %.pre = load ptr, ptr %28, align 8, !tbaa !26
  br label %._crit_edge

._crit_edge:                                      ; preds = %._crit_edge.loopexit, %41
  %61 = phi ptr [ %.pre, %._crit_edge.loopexit ], [ %50, %41 ]
  %62 = load ptr, ptr %30, align 8, !tbaa !28
  %63 = icmp ult ptr %61, %62
  br i1 %63, label %65, label %64

64:                                               ; preds = %._crit_edge
  tail call void (ptr, i32, ptr, ...) @av_log(ptr noundef null, i32 noundef 0, ptr noundef nonnull @.str, ptr noundef nonnull @.str.1, ptr noundef nonnull @.str.2, i32 noundef 43) #8
  tail call void @abort() #9
  unreachable

65:                                               ; preds = %._crit_edge
  %66 = and i32 %35, 255
  store i32 %66, ptr %27, align 4, !tbaa !25
  %.pre17 = load i32, ptr %17, align 4, !tbaa !15
  %.pre18 = load i32, ptr %12, align 8, !tbaa !8
  br label %opus_rc_enc_carryout.exit.i

opus_rc_enc_carryout.exit.i:                      ; preds = %65, %38
  %67 = phi i32 [ %.pre18, %65 ], [ %33, %38 ]
  %68 = phi i32 [ %.pre17, %65 ], [ %34, %38 ]
  %69 = shl i32 %68, 8
  %70 = and i32 %69, 2147483392
  store i32 %70, ptr %17, align 4, !tbaa !15
  %71 = shl i32 %67, 8
  store i32 %71, ptr %12, align 8, !tbaa !8
  %72 = load i32, ptr %31, align 8, !tbaa !21
  %73 = add i32 %72, 8
  store i32 %73, ptr %31, align 8, !tbaa !21
  %74 = icmp ult i32 %71, 8388609
  br i1 %74, label %32, label %opus_rc_enc_normalize.exit, !llvm.loop !29

opus_rc_enc_normalize.exit:                       ; preds = %opus_rc_enc_carryout.exit.i, %3
  ret void
}